target datalayout = "e-m:e-p270:32:32-p271:32:32-p272:64:64-i64:64-i128:128-f80:128-n8:16:32:64-S128"
target triple = "x86_64-pc-linux-gnu"

%struct.slurm_cred_t = type { i32, %union.pthread_rwlock_t, ptr, i32, i16, ptr, i64, ptr, i8 }
%union.pthread_rwlock_t = type { %struct.__pthread_rwlock_arch_t }
%struct.__pthread_rwlock_arch_t = type { i32, i32, i32, i32, i32, i32, i32, i32, i8, [7 x i8], i64, i32 }

@.str.17 = private unnamed_addr constant [32 x i8] c"%s: pthread_rwlock_unlock(): %m\00", align 1
@.str.20 = private unnamed_addr constant [32 x i8] c"%s: pthread_rwlock_wrlock(): %m\00", align 1
@__func__.slurm_cred_destroy = private unnamed_addr constant [19 x i8] c"slurm_cred_destroy\00", align 1
@.str.21 = private unnamed_addr constant [33 x i8] c"%s: pthread_rwlock_destroy(): %m\00", align 1

; Function Attrs: nounwind uwtable
define dso_local void @slurm_cred_destroy(ptr noundef %0) #0 {
  %2 = alloca ptr, align 8
  %3 = alloca i32, align 4
  %4 = alloca i32, align 4
  %5 = alloca i32, align 4
  store ptr %0, ptr %2, align 8
  %6 = load ptr, ptr %2, align 8
  %7 = icmp eq ptr %6, null
  br i1 %7, label %8, label %9

8:                                                ; preds = %1
  br label %63

9:                                                ; preds = %1
  br label %10

10:                                               ; preds = %9
  call void @llvm.lifetime.start.p0(i64 4, ptr %3) #9
  %11 = load ptr, ptr %2, align 8
  %12 = getelementptr inbounds nuw %struct.slurm_cred_t, ptr %11, i32 0, i32 1
  %13 = call i32 @pthread_rwlock_wrlock(ptr noundef %12) #9
  store i32 %13, ptr %3, align 4
  %14 = load i32, ptr %3, align 4
  %15 = icmp ne i32 %14, 0
  br i1 %15, label %16, label %19

16:                                               ; preds = %10
  %17 = load i32, ptr %3, align 4
  %18 = call ptr @__errno_location() #11
  store i32 %17, ptr %18, align 4
  call void (ptr, ...) @fatal_abort(ptr noundef @.str.20, ptr noundef @__func__.slurm_cred_destroy) #12
  unreachable

19:                                               ; preds = %10
  call void @llvm.lifetime.end.p0(i64 4, ptr %3) #9
  br label %20

20:                                               ; preds = %19
  %21 = load ptr, ptr %2, align 8
  %22 = getelementptr inbounds nuw %struct.slurm_cred_t, ptr %21, i32 0, i32 5
  %23 = load ptr, ptr %22, align 8
  call void @slurm_cred_free_args(ptr noundef %23)
  br label %24

24:                                               ; preds = %20
  %25 = load ptr, ptr %2, align 8
  %26 = getelementptr inbounds nuw %struct.slurm_cred_t, ptr %25, i32 0, i32 2
  %27 = load ptr, ptr %26, align 8
  %28 = icmp ne ptr %27, null
  br i1 %28, label %29, label %33

29:                                               ; preds = %24
  %30 = load ptr, ptr %2, align 8
  %31 = getelementptr inbounds nuw %struct.slurm_cred_t, ptr %30, i32 0, i32 2
  %32 = load ptr, ptr %31, align 8
  call void @free_buf(ptr noundef %32)
  br label %33

33:                                               ; preds = %29, %24
  %34 = load ptr, ptr %2, align 8
  %35 = getelementptr inbounds nuw %struct.slurm_cred_t, ptr %34, i32 0, i32 2
  store ptr null, ptr %35, align 8
  br label %36

36:                                               ; preds = %33
  %37 = load ptr, ptr %2, align 8
  %38 = getelementptr inbounds nuw %struct.slurm_cred_t, ptr %37, i32 0, i32 7
  call void @slurm_xfree(ptr noundef %38)
  %39 = load ptr, ptr %2, align 8
  %40 = getelementptr inbounds nuw %struct.slurm_cred_t, ptr %39, i32 0, i32 0
  store i32 -723724, ptr %40, align 8
  br label %41

41:                                               ; preds = %36
  call void @llvm.lifetime.start.p0(i64 4, ptr %4) #9
  %42 = load ptr, ptr %2, align 8
  %43 = getelementptr inbounds nuw %struct.slurm_cred_t, ptr %42, i32 0, i32 1
  %44 = call i32 @pthread_rwlock_unlock(ptr noundef %43) #9
  store i32 %44, ptr %4, align 4
  %45 = load i32, ptr %4, align 4
  %46 = icmp ne i32 %45, 0
  br i1 %46, label %47, label %50

47:                                               ; preds = %41
  %48 = load i32, ptr %4, align 4
  %49 = call ptr @__errno_location() #11
  store i32 %48, ptr %49, align 4
  call void (ptr, ...) @fatal_abort(ptr noundef @.str.17, ptr noundef @__func__.slurm_cred_destroy) #12
  unreachable

50:                                               ; preds = %41
  call void @llvm.lifetime.end.p0(i64 4, ptr %4) #9
  br label %51

51:                                               ; preds = %50
  br label %52

52:                                               ; preds = %51
  call void @llvm.lifetime.start.p0(i64 4, ptr %5) #9
  %53 = load ptr, ptr %2, align 8
  %54 = getelementptr inbounds nuw %struct.slurm_cred_t, ptr %53, i32 0, i32 1
  %55 = call i32 @pthread_rwlock_destroy(ptr noundef %54) #9
  store i32 %55, ptr %5, align 4
  %56 = load i32, ptr %5, align 4
  %57 = icmp ne i32 %56, 0
  br i1 %57, label %58, label %61

58:                                               ; preds = %52
  %59 = load i32, ptr %5, align 4
  %60 = call ptr @__errno_location() #11
  store i32 %59, ptr %60, align 4
  call void (ptr, ...) @fatal_abort(ptr noundef @.str.21, ptr noundef @__func__.slurm_cred_destroy) #12
  unreachable

61:                                               ; preds = %52
  call void @llvm.lifetime.end.p0(i64 4, ptr %5) #9
  br label %62

62:                                               ; preds = %61
  call void @slurm_xfree(ptr noundef %2)
  br label %63

63:                                               ; preds = %62, %8
  ret void
}