; Function Attrs: nounwind uwtable
define dso_local void @slurm_cred_destroy(ptr noundef %0) local_unnamed_addr #0 {
  %2 = alloca ptr, align 8
  store ptr %0, ptr %2, align 8
  %3 = icmp eq ptr %0, null
  br i1 %3, label %25, label %4

4:                                                ; preds = %1
  %5 = getelementptr inbounds nuw i8, ptr %0, i64 8
  %6 = tail call i32 @pthread_rwlock_wrlock(ptr noundef nonnull %5) #11
  %.not = icmp eq i32 %6, 0
  br i1 %.not, label %9, label %7

7:                                                ; preds = %4
  %8 = tail call ptr @__errno_location() #12
  store i32 %6, ptr %8, align 4
  tail call void (ptr, ...) @fatal_abort(ptr noundef nonnull @.str.20, ptr noundef nonnull @__func__.slurm_cred_destroy) #13
  unreachable

9:                                                ; preds = %4
  %10 = getelementptr inbounds nuw i8, ptr %0, i64 80
  %11 = load ptr, ptr %10, align 8
  tail call void @slurm_cred_free_args(ptr noundef %11)
  %12 = getelementptr inbounds nuw i8, ptr %0, i64 64
  %13 = load ptr, ptr %12, align 8
  %.not10 = icmp eq ptr %13, null
  br i1 %.not10, label %15, label %14

14:                                               ; preds = %9
  tail call void @free_buf(ptr noundef nonnull %13) #11
  br label %15

15:                                               ; preds = %14, %9
  store ptr null, ptr %12, align 8
  %16 = getelementptr inbounds nuw i8, ptr %0, i64 96
  tail call void @slurm_xfree(ptr noundef nonnull %16) #11
  store i32 -723724, ptr %0, align 8
  %17 = tail call i32 @pthread_rwlock_unlock(ptr noundef nonnull %5) #11
  %.not11 = icmp eq i32 %17, 0
  br i1 %.not11, label %20, label %18

18:                                               ; preds = %15
  %19 = tail call ptr @__errno_location() #12
  store i32 %17, ptr %19, align 4
  tail call void (ptr, ...) @fatal_abort(ptr noundef nonnull @.str.17, ptr noundef nonnull @__func__.slurm_cred_destroy) #13
  unreachable

20:                                               ; preds = %15
  %21 = tail call i32 @pthread_rwlock_destroy(ptr noundef nonnull %5) #11
  %.not12 = icmp eq i32 %21, 0
  br i1 %.not12, label %24, label %22

22:                                               ; preds = %20
  %23 = tail call ptr @__errno_location() #12
  store i32 %21, ptr %23, align 4
  tail call void (ptr, ...) @fatal_abort(ptr noundef nonnull @.str.21, ptr noundef nonnull @__func__.slurm_cred_destroy) #13
  unreachable

24:                                               ; preds = %20
  call void @slurm_xfree(ptr noundef nonnull %2) #11
  br label %25

25:                                               ; preds = %1, %24
  ret void
}